target datalayout = "e-m:e-p270:32:32-p271:32:32-p272:64:64-i64:64-i128:128-f80:128-n8:16:32:64-S128"
target triple = "x86_64-pc-linux-gnu"

%struct.pg_conn = type { ptr, ptr, ptr, ptr, ptr, ptr, ptr, ptr, ptr, ptr, ptr, ptr, ptr, ptr, ptr, ptr, ptr, ptr, ptr, ptr, ptr, ptr, ptr, ptr, ptr, ptr, ptr, ptr, ptr, ptr, ptr, ptr, ptr, ptr, ptr, ptr, ptr, ptr, ptr, ptr, ptr, ptr, ptr, i8, ptr, i32, %struct.PGNoticeHooks, ptr, i32, i32, i32, i32, i32, [6 x i8], i8, i8, i32, i8, i8, i32, i8, i32, ptr, ptr, i32, i32, ptr, ptr, ptr, ptr, ptr, i32, %struct.SockAddr, %struct.SockAddr, i32, i32, i8, i8, i8, i8, i8, i8, ptr, i8, i32, [1 x ptr], i8, i8, ptr, ptr, i32, i32, i32, i8, i8, i32, i32, ptr, i8, i64, ptr, i64, ptr, i32, i32, ptr, i32, i8, i32, i32, i32, i32, ptr, %struct.pg_prng_state, ptr, i32, i32, i32, i32, ptr, i32, i32, i32, i32, ptr, i32, ptr, i8, ptr, ptr, ptr, i32, i8, i8, i8, i8, i8, i8, i8, i8, %struct.PQExpBufferData, i32, %struct.PQExpBufferData }
%struct.PGNoticeHooks = type { ptr, ptr, ptr, ptr }
%struct.SockAddr = type { %struct.sockaddr_storage, i32 }
%struct.sockaddr_storage = type { i16, [118 x i8], i64 }
%struct.pg_prng_state = type { i64, i64 }
%struct.PQExpBufferData = type { ptr, i64, i64 }
%struct.pg_conn_host = type { i32, ptr, ptr, ptr, ptr }

@.str.265 = private unnamed_addr constant [6 x i8] c"28P01\00", align 1
@.str.266 = private unnamed_addr constant [34 x i8] c"password retrieved from file \22%s\22\00", align 1

; Function Attrs: nounwind uwtable
define internal void @pgpassfileWarning(ptr noundef %0) #0 {
  %2 = alloca ptr, align 8
  %3 = alloca ptr, align 8
  store ptr %0, ptr %2, align 8
  %4 = load ptr, ptr %2, align 8
  %5 = getelementptr inbounds nuw %struct.pg_conn, ptr %4, i32 0, i32 77
  %6 = load i8, ptr %5, align 1, !range !3, !noundef !4
  %7 = trunc i8 %6 to i1
  br i1 %7, label %8, label %42

8:                                                ; preds = %1
  %9 = load ptr, ptr %2, align 8
  %10 = getelementptr inbounds nuw %struct.pg_conn, ptr %9, i32 0, i32 66
  %11 = load ptr, ptr %10, align 8
  %12 = load ptr, ptr %2, align 8
  %13 = getelementptr inbounds nuw %struct.pg_conn, ptr %12, i32 0, i32 65
  %14 = load i32, ptr %13, align 4
  %15 = sext i32 %14 to i64
  %16 = getelementptr inbounds %struct.pg_conn_host, ptr %11, i64 %15
  %17 = getelementptr inbounds nuw %struct.pg_conn_host, ptr %16, i32 0, i32 4
  %18 = load ptr, ptr %17, align 8
  %19 = icmp ne ptr %18, null
  br i1 %19, label %20, label %42

20:                                               ; preds = %8
  %21 = load ptr, ptr %2, align 8
  %22 = getelementptr inbounds nuw %struct.pg_conn, ptr %21, i32 0, i32 126
  %23 = load ptr, ptr %22, align 8
  %24 = icmp ne ptr %23, null
  br i1 %24, label %25, label %42

25:                                               ; preds = %20
  call void @llvm.lifetime.start.p0(i64 8, ptr %3) #12
  %26 = load ptr, ptr %2, align 8
  %27 = getelementptr inbounds nuw %struct.pg_conn, ptr %26, i32 0, i32 126
  %28 = load ptr, ptr %27, align 8
  %29 = call ptr @PQresultErrorField(ptr noundef %28, i32 noundef 67)
  store ptr %29, ptr %3, align 8
  %30 = load ptr, ptr %3, align 8
  %31 = icmp ne ptr %30, null
  br i1 %31, label %32, label %41

32:                                               ; preds = %25
  %33 = load ptr, ptr %3, align 8
  %34 = call i32 @strcmp(ptr noundef %33, ptr noundef @.str.265) #13
  %35 = icmp eq i32 %34, 0
  br i1 %35, label %36, label %41

36:                                               ; preds = %32
  %37 = load ptr, ptr %2, align 8
  %38 = load ptr, ptr %2, align 8
  %39 = getelementptr inbounds nuw %struct.pg_conn, ptr %38, i32 0, i32 14
  %40 = load ptr, ptr %39, align 8
  call void (ptr, ptr, ...) @libpq_append_conn_error(ptr noundef %37, ptr noundef @.str.266, ptr noundef %40)
  br label %41

41:                                               ; preds = %36, %32, %25
  call void @llvm.lifetime.end.p0(i64 8, ptr %3) #12
  br label %42

42:                                               ; preds = %41, %20, %8, %1
  ret void
}