; Function Attrs: nounwind uwtable
define internal fastcc void @pgpassfileWarning(ptr noundef nonnull %0) unnamed_addr #0 {
  %2 = getelementptr inbounds nuw i8, ptr %0, i64 809
  %3 = load i8, ptr %2, align 1, !range !13, !noundef !14
  %4 = trunc nuw i8 %3 to i1
  br i1 %4, label %5, label %24

5:                                                ; preds = %1
  %6 = getelementptr inbounds nuw i8, ptr %0, i64 480
  %7 = load ptr, ptr %6, align 8
  %8 = getelementptr inbounds nuw i8, ptr %0, i64 476
  %9 = load i32, ptr %8, align 4
  %10 = sext i32 %9 to i64
  %11 = getelementptr inbounds %struct.pg_conn_host, ptr %7, i64 %10, i32 4
  %12 = load ptr, ptr %11, align 8
  %.not = icmp eq ptr %12, null
  br i1 %.not, label %24, label %13

13:                                               ; preds = %5
  %14 = getelementptr inbounds nuw i8, ptr %0, i64 1064
  %15 = load ptr, ptr %14, align 8
  %.not10 = icmp eq ptr %15, null
  br i1 %.not10, label %24, label %16

16:                                               ; preds = %13
  %17 = tail call ptr @PQresultErrorField(ptr noundef nonnull %15, i32 noundef 67) #25
  %.not11 = icmp eq ptr %17, null
  br i1 %.not11, label %24, label %18

18:                                               ; preds = %16
  %19 = tail call i32 @strcmp(ptr noundef nonnull dereferenceable(1) %17, ptr noundef nonnull dereferenceable(6) @.str.265) #26
  %20 = icmp eq i32 %19, 0
  br i1 %20, label %21, label %24

21:                                               ; preds = %18
  %22 = getelementptr inbounds nuw i8, ptr %0, i64 112
  %23 = load ptr, ptr %22, align 8
  tail call void (ptr, ptr, ...) @libpq_append_conn_error(ptr noundef nonnull %0, ptr noundef nonnull @.str.266, ptr noundef %23) #25
  br label %24

24:                                               ; preds = %16, %18, %21, %13, %5, %1
  ret void
}